target datalayout = "e-m:e-p270:32:32-p271:32:32-p272:64:64-i64:64-i128:128-f80:128-n8:16:32:64-S128"
target triple = "x86_64-pc-linux-gnu"

%struct.Gia_Man_t_ = type { ptr, ptr, i32, i32, i32, i32, ptr, ptr, i32, i32, i32, ptr, ptr, %struct.Vec_Int_t_, %struct.Vec_Int_t_, i32, i32, i32, %struct.Vec_Int_t_, ptr, ptr, ptr, i32, i32, i32, i32, ptr, ptr, ptr, ptr, ptr, i32, i32, ptr, i32, ptr, ptr, ptr, ptr, ptr, ptr, ptr, ptr, ptr, ptr, ptr, ptr, ptr, ptr, ptr, ptr, ptr, ptr, %struct.Vec_Int_t_, %struct.Vec_Int_t_, ptr, ptr, ptr, ptr, ptr, ptr, ptr, ptr, ptr, ptr, ptr, ptr, ptr, ptr, ptr, ptr, ptr, ptr, ptr, ptr, ptr, i32, float, float, ptr, ptr, i32, ptr, ptr, ptr, ptr, ptr, ptr, ptr, ptr, ptr, ptr, ptr, ptr, ptr, ptr, ptr, i64, i64, ptr, ptr, i32, i32, i32, i32, i32, i32, i32, i32, i32, i32, i32, i32, ptr, ptr, ptr, ptr, ptr, ptr, ptr, ptr, i32, i32, i32, ptr, i32, i32, ptr, ptr, ptr, ptr, ptr, ptr, i32, i32, ptr, %struct.Vec_Int_t_, %struct.Vec_Int_t_, %struct.Vec_Int_t_, ptr, ptr, ptr, i32, i32, i32, i32, ptr, ptr, ptr, ptr, ptr }
%struct.Vec_Int_t_ = type { i32, i32, ptr }
%struct.Gia_Obj_t_ = type <{ i64, i32 }>

; Function Attrs: inlinehint nounwind uwtable
define internal ptr @Gia_ManObj(ptr noundef %0, i32 noundef %1) #2 {
  %3 = alloca ptr, align 8
  %4 = alloca i32, align 4
  store ptr %0, ptr %3, align 8, !tbaa !3
  store i32 %1, ptr %4, align 4, !tbaa !8
  %5 = load ptr, ptr %3, align 8, !tbaa !3
  %6 = getelementptr inbounds nuw %struct.Gia_Man_t_, ptr %5, i32 0, i32 6
  %7 = load ptr, ptr %6, align 8, !tbaa !12
  %8 = load i32, ptr %4, align 4, !tbaa !8
  %9 = sext i32 %8 to i64
  %10 = getelementptr inbounds %struct.Gia_Obj_t_, ptr %7, i64 %9
  ret ptr %10
}

; Function Attrs: nounwind uwtable
define void @Gia_AcecMarkFadd(ptr noundef %0, ptr noundef %1) #0 {
  %3 = alloca ptr, align 8
  %4 = alloca ptr, align 8
  store ptr %0, ptr %3, align 8, !tbaa !3
  store ptr %1, ptr %4, align 8, !tbaa !31
  %5 = load ptr, ptr %3, align 8, !tbaa !3
  %6 = load ptr, ptr %4, align 8, !tbaa !31
  %7 = getelementptr inbounds i32, ptr %6, i64 0
  %8 = load i32, ptr %7, align 4, !tbaa !8
  %9 = call ptr @Gia_ManObj(ptr noundef %5, i32 noundef %8)
  %10 = load i64, ptr %9, align 4
  %11 = and i64 %10, -1073741825
  %12 = or i64 %11, 1073741824
  store i64 %12, ptr %9, align 4
  %13 = load ptr, ptr %3, align 8, !tbaa !3
  %14 = load ptr, ptr %4, align 8, !tbaa !31
  %15 = getelementptr inbounds i32, ptr %14, i64 1
  %16 = load i32, ptr %15, align 4, !tbaa !8
  %17 = call ptr @Gia_ManObj(ptr noundef %13, i32 noundef %16)
  %18 = load i64, ptr %17, align 4
  %19 = and i64 %18, -1073741825
  %20 = or i64 %19, 1073741824
  store i64 %20, ptr %17, align 4
  %21 = load ptr, ptr %3, align 8, !tbaa !3
  %22 = load ptr, ptr %4, align 8, !tbaa !31
  %23 = getelementptr inbounds i32, ptr %22, i64 2
  %24 = load i32, ptr %23, align 4, !tbaa !8
  %25 = call ptr @Gia_ManObj(ptr noundef %21, i32 noundef %24)
  %26 = load i64, ptr %25, align 4
  %27 = and i64 %26, -1073741825
  %28 = or i64 %27, 1073741824
  store i64 %28, ptr %25, align 4
  %29 = load ptr, ptr %3, align 8, !tbaa !3
  %30 = load ptr, ptr %4, align 8, !tbaa !31
  %31 = getelementptr inbounds i32, ptr %30, i64 3
  %32 = load i32, ptr %31, align 4, !tbaa !8
  call void @Gia_AcecMark_rec(ptr noundef %29, i32 noundef %32, i32 noundef 1)
  %33 = load ptr, ptr %3, align 8, !tbaa !3
  %34 = load ptr, ptr %4, align 8, !tbaa !31
  %35 = getelementptr inbounds i32, ptr %34, i64 4
  %36 = load i32, ptr %35, align 4, !tbaa !8
  call void @Gia_AcecMark_rec(ptr noundef %33, i32 noundef %36, i32 noundef 1)
  ret void
}