; Function Attrs: nofree nosync nounwind memory(readwrite, inaccessiblemem: none) uwtable
define void @Gia_AcecMarkFadd(ptr noundef readonly captures(none) %0, ptr noundef readonly captures(none) %1) local_unnamed_addr #0 {
  %3 = load i32, ptr %1, align 4, !tbaa !28
  %4 = getelementptr i8, ptr %0, i64 32
  %.val11 = load ptr, ptr %4, align 8, !tbaa !3
  %5 = sext i32 %3 to i64
  %6 = getelementptr inbounds %struct.Gia_Obj_t_, ptr %.val11, i64 %5
  %7 = load i64, ptr %6, align 4
  %8 = or i64 %7, 1073741824
  store i64 %8, ptr %6, align 4
  %9 = getelementptr inbounds nuw i8, ptr %1, i64 4
  %10 = load i32, ptr %9, align 4, !tbaa !28
  %.val10 = load ptr, ptr %4, align 8, !tbaa !3
  %11 = sext i32 %10 to i64
  %12 = getelementptr inbounds %struct.Gia_Obj_t_, ptr %.val10, i64 %11
  %13 = load i64, ptr %12, align 4
  %14 = or i64 %13, 1073741824
  store i64 %14, ptr %12, align 4
  %15 = getelementptr inbounds nuw i8, ptr %1, i64 8
  %16 = load i32, ptr %15, align 4, !tbaa !28
  %.val = load ptr, ptr %4, align 8, !tbaa !3
  %17 = sext i32 %16 to i64
  %18 = getelementptr inbounds %struct.Gia_Obj_t_, ptr %.val, i64 %17
  %19 = load i64, ptr %18, align 4
  %20 = or i64 %19, 1073741824
  store i64 %20, ptr %18, align 4
  %21 = getelementptr inbounds nuw i8, ptr %1, i64 12
  %22 = load i32, ptr %21, align 4, !tbaa !28
  tail call void @Gia_AcecMark_rec(ptr noundef %0, i32 noundef %22, i32 noundef 1)
  %23 = getelementptr inbounds nuw i8, ptr %1, i64 16
  %24 = load i32, ptr %23, align 4, !tbaa !28
  tail call void @Gia_AcecMark_rec(ptr noundef %0, i32 noundef %24, i32 noundef 1)
  ret void
}